target datalayout = "e-m:e-p270:32:32-p271:32:32-p272:64:64-i64:64-i128:128-f80:128-n8:16:32:64-S128"
target triple = "x86_64-pc-linux-gnu"

@H5D_init_g = external global i8, align 1
@H5_libterm_g = external global i8, align 1
@H5_H5D_earray_ctx_ud_t_reg_free_list = internal global { i8, [3 x i8], i32, i32, [4 x i8], ptr, i64, ptr } { i8 0, [3 x i8] zeroinitializer, i32 0, i32 0, [4 x i8] zeroinitializer, ptr @.str.13, i64 16, ptr null }, align 8

; Function Attrs: nounwind uwtable
define internal i32 @H5D__earray_dst_dbg_context(ptr noundef %0) #0 {
  %2 = alloca ptr, align 8
  %3 = alloca ptr, align 8
  store ptr %0, ptr %2, align 8, !tbaa !80
  call void @llvm.lifetime.start.p0(i64 8, ptr %3) #8
  %4 = load ptr, ptr %2, align 8, !tbaa !80
  store ptr %4, ptr %3, align 8, !tbaa !105
  %5 = load i8, ptr @H5D_init_g, align 1, !tbaa !14, !range !16, !noundef !17
  %6 = trunc i8 %5 to i1
  br i1 %6, label %11, label %7

7:                                                ; preds = %1
  %8 = load i8, ptr @H5_libterm_g, align 1, !tbaa !14, !range !16, !noundef !17
  %9 = trunc i8 %8 to i1
  %10 = xor i1 %9, true
  br label %11

11:                                               ; preds = %7, %1
  %12 = phi i1 [ true, %1 ], [ %10, %7 ]
  %13 = xor i1 %12, true
  %14 = xor i1 %13, true
  %15 = zext i1 %14 to i32
  %16 = sext i32 %15 to i64
  %17 = call i64 @llvm.expect.i64(i64 %16, i64 1)
  %18 = icmp ne i64 %17, 0
  br i1 %18, label %19, label %22

19:                                               ; preds = %11
  %20 = load ptr, ptr %3, align 8, !tbaa !105
  %21 = call ptr @H5FL_reg_free(ptr noundef @H5_H5D_earray_ctx_ud_t_reg_free_list, ptr noundef %20)
  store ptr %21, ptr %3, align 8, !tbaa !105
  br label %22

22:                                               ; preds = %19, %11
  call void @llvm.lifetime.end.p0(i64 8, ptr %3) #8
  ret i32 0
}